target datalayout = "e-m:e-p270:32:32-p271:32:32-p272:64:64-i64:64-i128:128-f80:128-n8:16:32:64-S128"
target triple = "x86_64-unknown-linux-gnu"

%"class.google::protobuf::internal::InternalMetadata" = type { i64 }
%"class.google::protobuf::internal::CachedSize" = type { i32 }
%"struct.std::atomic" = type { i64 }
%"class.google::protobuf::internal::MapAllocator" = type { ptr }
%"class.google::protobuf::Message" = type { %"class.google::protobuf::MessageLite" }
%"class.google::protobuf::MessageLite" = type { ptr, %"class.google::protobuf::internal::InternalMetadata" }
%"class.google::protobuf::Struct" = type { %"class.google::protobuf::Message", %union.anon.2 }
%union.anon.2 = type { %"struct.google::protobuf::Struct::Impl_" }
%"struct.google::protobuf::Struct::Impl_" = type <{ %"class.google::protobuf::internal::MapField", %"class.google::protobuf::internal::CachedSize", [4 x i8] }>
%"class.google::protobuf::internal::MapField" = type { %"class.google::protobuf::internal::TypeDefinedMapFieldBase" }
%"class.google::protobuf::internal::TypeDefinedMapFieldBase" = type { %"class.google::protobuf::internal::MapFieldBase", %union.anon.1 }
%"class.google::protobuf::internal::MapFieldBase" = type { %"class.google::protobuf::internal::MapFieldBaseForParse", %"struct.std::atomic" }
%"class.google::protobuf::internal::MapFieldBaseForParse" = type { ptr }
%union.anon.1 = type { %"class.google::protobuf::Map" }
%"class.google::protobuf::Map" = type { %"class.google::protobuf::internal::KeyMapBase" }
%"class.google::protobuf::internal::KeyMapBase" = type { %"class.google::protobuf::internal::UntypedMapBase" }
%"class.google::protobuf::internal::UntypedMapBase" = type { i32, i32, i32, i32, ptr, %"class.google::protobuf::internal::MapAllocator" }

; Function Attrs: mustprogress uwtable
define void @_ZN6google8protobuf6Struct5ClearEv(ptr noundef nonnull align 8 dereferenceable(72) %this) unnamed_addr #4 align 2 {
entry:
  %this.addr.i5 = alloca ptr, align 8
  %this.addr.i2 = alloca ptr, align 8
  %this.addr.i = alloca ptr, align 8
  %this.addr = alloca ptr, align 8
  %cached_has_bits = alloca i32, align 4
  store ptr %this, ptr %this.addr, align 8
  %this1 = load ptr, ptr %this.addr, align 8
  store i32 0, ptr %cached_has_bits, align 4
  %0 = getelementptr inbounds %"class.google::protobuf::Struct", ptr %this1, i32 0, i32 1
  %fields_ = getelementptr inbounds %"struct.google::protobuf::Struct::Impl_", ptr %0, i32 0, i32 0
  call void @_ZN6google8protobuf8internal12MapFieldBase5ClearEv(ptr noundef nonnull align 8 dereferenceable(16) %fields_)
  %_internal_metadata_ = getelementptr inbounds %"class.google::protobuf::MessageLite", ptr %this1, i32 0, i32 1
  store ptr %_internal_metadata_, ptr %this.addr.i, align 8
  %this1.i = load ptr, ptr %this.addr.i, align 8
  store ptr %this1.i, ptr %this.addr.i2, align 8
  %this1.i3 = load ptr, ptr %this.addr.i2, align 8
  store ptr %this1.i3, ptr %this.addr.i5, align 8
  %this1.i6 = load ptr, ptr %this.addr.i5, align 8
  %1 = load i64, ptr %this1.i6, align 8
  %and.i = and i64 %1, 1
  %tobool.i = icmp ne i64 %and.i, 0
  br i1 %tobool.i, label %if.then.i, label %_ZN6google8protobuf8internal16InternalMetadata5ClearINS0_15UnknownFieldSetEEEvv.exit

if.then.i:                                        ; preds = %entry
  call void @_ZN6google8protobuf8internal16InternalMetadata7DoClearINS0_15UnknownFieldSetEEEvv(ptr noundef nonnull align 8 dereferenceable(8) %this1.i)
  br label %_ZN6google8protobuf8internal16InternalMetadata5ClearINS0_15UnknownFieldSetEEEvv.exit

_ZN6google8protobuf8internal16InternalMetadata5ClearINS0_15UnknownFieldSetEEEvv.exit: ; preds = %if.then.i, %entry
  ret void
}